ccopy_reg
_reconstructor
p0
(cgoogle.oauth2.credentials
Credentials
p1
c__builtin__
object
p2
Ntp3
Rp4
(dp5
S'_quota_project_id'
p6
NsS'_token_uri'
p7
Vhttps://oauth2.googleapis.com/token
p8
sS'_scopes'
p9
(lp10
S'https://www.googleapis.com/auth/drive'
p11
asS'_default_scopes'
p12
NsS'expiry'
p13
cdatetime
datetime
p14
(S'\x07\xe5\x08\x1c\x13\x06\x04\x02#\xcf'
p15
tp16
Rp17
sS'token'
p18
Vya29.a0ARrdaM-fBVLEFoBbwA69x7EPyOfH8DrwCL0-jdDC8-wuUvYHSGRLOKWsdxenl2EuHw7fz7Y5LTRZikuNeCboWlD9wcJpvAlMivwIyjQ9fxQHO1ZnvQFN7S3KYIfq5nab4QbJct_EUnTrWWUHA2dui2nH_bEU
p19
sS'_refresh_token'
p20
V1//0gERvOdSHSw2_CgYIARAAGBASNwF-L9IroDrMSZROLFjwa38PnLheZbSGDeymUHUhbH6TB0vXWb8v6GSyYe_Yox5rE2WydTn1A7Q
p21
sS'_client_secret'
p22
VMowvmECm6hOfAyGjKDlcqRkN
p23
sS'_client_id'
p24
V222511033836-ga3nori5hhm21mpfg55qnqc9fenv0kua.apps.googleusercontent.com
p25
sS'_id_token'
p26
NsS'_rapt_token'
p27
Nsb.